target datalayout = "e-m:e-p270:32:32-p271:32:32-p272:64:64-i64:64-i128:128-f80:128-n8:16:32:64-S128"
target triple = "x86_64-pc-linux-gnu"

; Function Attrs: nounwind uwtable
define i32 @ark_MRIStepInnerGetAccumulatedError(ptr noundef %0, ptr noundef %1) #0 {
  %3 = alloca i32, align 4
  %4 = alloca ptr, align 8
  %5 = alloca ptr, align 8
  %6 = alloca ptr, align 8
  %7 = alloca i32, align 4
  %8 = alloca i32, align 4
  store ptr %0, ptr %4, align 8, !tbaa !161
  store ptr %1, ptr %5, align 8, !tbaa !104
  call void @llvm.lifetime.start.p0(i64 8, ptr %6) #10
  call void @llvm.lifetime.start.p0(i64 4, ptr %7) #10
  %9 = load ptr, ptr %4, align 8, !tbaa !161
  %10 = call i32 @MRIStepInnerStepper_GetContent(ptr noundef %9, ptr noundef %6)
  store i32 %10, ptr %7, align 4, !tbaa !38
  %11 = load i32, ptr %7, align 4, !tbaa !38
  %12 = icmp ne i32 %11, 0
  br i1 %12, label %13, label %14

13:                                               ; preds = %2
  store i32 -1, ptr %3, align 4
  store i32 1, ptr %8, align 4
  br label %26

14:                                               ; preds = %2
  %15 = load ptr, ptr %6, align 8, !tbaa !3
  %16 = load ptr, ptr %5, align 8, !tbaa !104
  %17 = call i32 @ARKodeGetAccumulatedError(ptr noundef %15, ptr noundef %16)
  store i32 %17, ptr %7, align 4, !tbaa !38
  %18 = load i32, ptr %7, align 4, !tbaa !38
  %19 = icmp eq i32 %18, 0
  br i1 %19, label %20, label %21

20:                                               ; preds = %14
  store i32 0, ptr %3, align 4
  store i32 1, ptr %8, align 4
  br label %26

21:                                               ; preds = %14
  %22 = load i32, ptr %7, align 4, !tbaa !38
  %23 = icmp sgt i32 %22, 0
  br i1 %23, label %24, label %25

24:                                               ; preds = %21
  store i32 1, ptr %3, align 4
  store i32 1, ptr %8, align 4
  br label %26

25:                                               ; preds = %21
  store i32 -1, ptr %3, align 4
  store i32 1, ptr %8, align 4
  br label %26

26:                                               ; preds = %25, %24, %20, %13
  call void @llvm.lifetime.end.p0(i64 4, ptr %7) #10
  call void @llvm.lifetime.end.p0(i64 8, ptr %6) #10
  %27 = load i32, ptr %3, align 4
  ret i32 %27
}