; Function Attrs: nounwind uwtable
define range(i32 -1, 2) i32 @ark_MRIStepInnerGetAccumulatedError(ptr noundef %0, ptr noundef %1) #0 {
  %3 = alloca ptr, align 8
  call void @llvm.lifetime.start.p0(i64 8, ptr nonnull %3) #16
  %4 = call i32 @MRIStepInnerStepper_GetContent(ptr noundef %0, ptr noundef nonnull %3) #16
  %.not = icmp eq i32 %4, 0
  br i1 %.not, label %5, label %10

5:                                                ; preds = %2
  %6 = load ptr, ptr %3, align 8, !tbaa !157
  %7 = call i32 @ARKodeGetAccumulatedError(ptr noundef %6, ptr noundef %1) #16
  %8 = icmp eq i32 %7, 0
  br i1 %8, label %10, label %9

9:                                                ; preds = %5
  %.inv = icmp slt i32 %7, 1
  %. = select i1 %.inv, i32 -1, i32 1
  br label %10

10:                                               ; preds = %9, %5, %2
  %.0 = phi i32 [ -1, %2 ], [ 0, %5 ], [ %., %9 ]
  call void @llvm.lifetime.end.p0(i64 8, ptr nonnull %3) #16
  ret i32 %.0
}